; Function Attrs: nounwind uwtable
define dso_local void @queueClientForReprocessing(ptr noundef %0) local_unnamed_addr #0 {
  %2 = getelementptr inbounds nuw i8, ptr %0, i64 8
  %3 = load i64, ptr %2, align 8, !tbaa !34
  %4 = and i64 %3, 128
  %.not = icmp eq i64 %4, 0
  br i1 %.not, label %5, label %9

5:                                                ; preds = %1
  %6 = or disjoint i64 %3, 128
  store i64 %6, ptr %2, align 8, !tbaa !34
  %7 = load ptr, ptr getelementptr inbounds nuw (i8, ptr @server, i64 7632), align 8, !tbaa !70
  %8 = tail call ptr @listAddNodeTail(ptr noundef %7, ptr noundef nonnull %0) #5
  br label %9

9:                                                ; preds = %5, %1
  ret void
}